target datalayout = "e-m:e-p270:32:32-p271:32:32-p272:64:64-i64:64-i128:128-f80:128-n8:16:32:64-S128"
target triple = "x86_64-pc-linux-gnu"

%"class.std::__cxx11::basic_string" = type { %"struct.std::__cxx11::basic_string<char>::_Alloc_hider", i64, %union.anon }
%"struct.std::__cxx11::basic_string<char>::_Alloc_hider" = type { ptr }
%union.anon = type { i64, [8 x i8] }
%"class.std::vector.91" = type { %"struct.std::_Vector_base.92" }
%"struct.std::_Vector_base.92" = type { %"struct.std::_Vector_base<unsigned long, std::allocator<unsigned long>>::_Vector_impl" }
%"struct.std::_Vector_base<unsigned long, std::allocator<unsigned long>>::_Vector_impl" = type { %"struct.std::_Vector_base<unsigned long, std::allocator<unsigned long>>::_Vector_impl_data" }
%"struct.std::_Vector_base<unsigned long, std::allocator<unsigned long>>::_Vector_impl_data" = type { ptr, ptr, ptr }
%"class.std::allocator" = type { i8 }
%"class.std::basic_string_view" = type { i64, ptr }
%"class.cm::static_string_view" = type { %"class.std::basic_string_view" }
%"class.std::initializer_list" = type { ptr, i64 }
%"class.std::allocator.93" = type { i8 }

@__dso_handle = external hidden global i8
@_ZZN12_GLOBAL__N_112_GLOBAL__N_117WriteMessageEventER14cmConfigureLogRK10cmMakefileRKNSt7__cxx1112basic_stringIcSt11char_traitsIcESaIcEEEE24LogVersionsWithMessageV1 = internal global %"class.std::vector.91" zeroinitializer, align 8
@_ZGVZN12_GLOBAL__N_112_GLOBAL__N_117WriteMessageEventER14cmConfigureLogRK10cmMakefileRKNSt7__cxx1112basic_stringIcSt11char_traitsIcESaIcEEEE24LogVersionsWithMessageV1 = internal global i64 0, align 8
@.str.21 = private unnamed_addr constant [11 x i8] c"message-v1\00", align 1
@.str.22 = private unnamed_addr constant [8 x i8] c"message\00", align 1
@.str.35 = private unnamed_addr constant [50 x i8] c"basic_string: construction from null is not valid\00", align 1

; Function Attrs: mustprogress nounwind uwtable
define linkonce_odr dso_local void @_ZN2cm18static_string_viewC2ESt17basic_string_viewIcSt11char_traitsIcEE(ptr noundef nonnull align 8 dereferenceable(16) %0, i64 %1, ptr %2) unnamed_addr #5 comdat align 2 {
  %4 = alloca %"class.std::basic_string_view", align 8
  %5 = alloca ptr, align 8
  %6 = getelementptr inbounds { i64, ptr }, ptr %4, i32 0, i32 0
  store i64 %1, ptr %6, align 8
  %7 = getelementptr inbounds { i64, ptr }, ptr %4, i32 0, i32 1
  store ptr %2, ptr %7, align 8
  store ptr %0, ptr %5, align 8
  %8 = load ptr, ptr %5, align 8
  call void @llvm.memcpy.p0.p0.i64(ptr align 8 %8, ptr align 8 %4, i64 16, i1 false)
  ret void
}

; Function Attrs: mustprogress nounwind uwtable
define linkonce_odr dso_local void @_ZNSt17basic_string_viewIcSt11char_traitsIcEEC2EPKcm(ptr noundef nonnull align 8 dereferenceable(16) %0, ptr noundef %1, i64 noundef %2) unnamed_addr #5 comdat align 2 {
  %4 = alloca ptr, align 8
  %5 = alloca ptr, align 8
  %6 = alloca i64, align 8
  store ptr %0, ptr %4, align 8
  store ptr %1, ptr %5, align 8
  store i64 %2, ptr %6, align 8
  %7 = load ptr, ptr %4, align 8
  %8 = getelementptr inbounds %"class.std::basic_string_view", ptr %7, i32 0, i32 0
  %9 = load i64, ptr %6, align 8
  store i64 %9, ptr %8, align 8
  %10 = getelementptr inbounds %"class.std::basic_string_view", ptr %7, i32 0, i32 1
  %11 = load ptr, ptr %5, align 8
  store ptr %11, ptr %10, align 8
  ret void
}

; Function Attrs: mustprogress nounwind uwtable
define linkonce_odr dso_local noundef i64 @_ZNSt11char_traitsIcE6lengthEPKc(ptr noundef %0) #5 comdat align 2 {
  %2 = alloca ptr, align 8
  store ptr %0, ptr %2, align 8
  %3 = load ptr, ptr %2, align 8
  %4 = call i64 @strlen(ptr noundef %3) #3
  ret i64 %4
}

; Function Attrs: mustprogress nounwind uwtable
define linkonce_odr dso_local void @_ZNSt7__cxx1112basic_stringIcSt11char_traitsIcESaIcEE12_Alloc_hiderD2Ev(ptr noundef nonnull align 8 dereferenceable(8) %0) unnamed_addr #5 comdat align 2 {
  %2 = alloca ptr, align 8
  store ptr %0, ptr %2, align 8
  %3 = load ptr, ptr %2, align 8
  call void @_ZNSaIcED2Ev(ptr noundef nonnull align 1 dereferenceable(1) %3) #3
  ret void
}

; Function Attrs: mustprogress nounwind uwtable
define linkonce_odr dso_local void @_ZNSt15__new_allocatorImED2Ev(ptr noundef nonnull align 1 dereferenceable(1) %0) unnamed_addr #5 comdat align 2 {
  %2 = alloca ptr, align 8
  store ptr %0, ptr %2, align 8
  ret void
}

; Function Attrs: mustprogress nounwind uwtable
define linkonce_odr dso_local void @_ZNSt15__new_allocatorImEC2Ev(ptr noundef nonnull align 1 dereferenceable(1) %0) unnamed_addr #5 comdat align 2 {
  %2 = alloca ptr, align 8
  store ptr %0, ptr %2, align 8
  ret void
}

; Function Attrs: mustprogress uwtable
define linkonce_odr dso_local void @_ZN14cmConfigureLog21WriteLiteralTextBlockESt17basic_string_viewIcSt11char_traitsIcEERKNSt7__cxx1112basic_stringIcS2_SaIcEEE(ptr noundef nonnull align 8 dereferenceable(584) %0, i64 %1, ptr %2, ptr noundef nonnull align 8 dereferenceable(32) %3) #4 comdat align 2 {
  %5 = alloca %"class.std::basic_string_view", align 8
  %6 = alloca ptr, align 8
  %7 = alloca ptr, align 8
  %8 = alloca %"class.std::basic_string_view", align 8
  %9 = alloca %"class.std::basic_string_view", align 8
  %10 = getelementptr inbounds { i64, ptr }, ptr %5, i32 0, i32 0
  store i64 %1, ptr %10, align 8
  %11 = getelementptr inbounds { i64, ptr }, ptr %5, i32 0, i32 1
  store ptr %2, ptr %11, align 8
  store ptr %0, ptr %6, align 8
  store ptr %3, ptr %7, align 8
  %12 = load ptr, ptr %6, align 8
  call void @llvm.memcpy.p0.p0.i64(ptr align 8 %8, ptr align 8 %5, i64 16, i1 false)
  %13 = load ptr, ptr %7, align 8
  %14 = call { i64, ptr } @_ZNKSt7__cxx1112basic_stringIcSt11char_traitsIcESaIcEEcvSt17basic_string_viewIcS2_EEv(ptr noundef nonnull align 8 dereferenceable(32) %13) #3
  %15 = getelementptr inbounds { i64, ptr }, ptr %9, i32 0, i32 0
  %16 = extractvalue { i64, ptr } %14, 0
  store i64 %16, ptr %15, align 8
  %17 = getelementptr inbounds { i64, ptr }, ptr %9, i32 0, i32 1
  %18 = extractvalue { i64, ptr } %14, 1
  store ptr %18, ptr %17, align 8
  %19 = getelementptr inbounds { i64, ptr }, ptr %8, i32 0, i32 0
  %20 = load i64, ptr %19, align 8
  %21 = getelementptr inbounds { i64, ptr }, ptr %8, i32 0, i32 1
  %22 = load ptr, ptr %21, align 8
  %23 = getelementptr inbounds { i64, ptr }, ptr %9, i32 0, i32 0
  %24 = load i64, ptr %23, align 8
  %25 = getelementptr inbounds { i64, ptr }, ptr %9, i32 0, i32 1
  %26 = load ptr, ptr %25, align 8
  call void @_ZN14cmConfigureLog21WriteLiteralTextBlockESt17basic_string_viewIcSt11char_traitsIcEES3_(ptr noundef nonnull align 8 dereferenceable(584) %12, i64 %20, ptr %22, i64 %24, ptr %26)
  ret void
}

; Function Attrs: mustprogress uwtable
define linkonce_odr dso_local { i64, ptr } @_ZN2cmli2_sEPKcm(ptr noundef %0, i64 noundef %1) #4 comdat {
  %3 = alloca %"class.cm::static_string_view", align 8
  %4 = alloca ptr, align 8
  %5 = alloca i64, align 8
  %6 = alloca %"class.std::basic_string_view", align 8
  store ptr %0, ptr %4, align 8
  store i64 %1, ptr %5, align 8
  %7 = load ptr, ptr %4, align 8
  %8 = load i64, ptr %5, align 8
  call void @_ZNSt17basic_string_viewIcSt11char_traitsIcEEC2EPKcm(ptr noundef nonnull align 8 dereferenceable(16) %6, ptr noundef %7, i64 noundef %8) #3
  %9 = getelementptr inbounds { i64, ptr }, ptr %6, i32 0, i32 0
  %10 = load i64, ptr %9, align 8
  %11 = getelementptr inbounds { i64, ptr }, ptr %6, i32 0, i32 1
  %12 = load ptr, ptr %11, align 8
  call void @_ZN2cm18static_string_viewC2ESt17basic_string_viewIcSt11char_traitsIcEE(ptr noundef nonnull align 8 dereferenceable(16) %3, i64 %10, ptr %12)
  %13 = getelementptr inbounds %"class.cm::static_string_view", ptr %3, i32 0, i32 0
  %14 = load { i64, ptr }, ptr %13, align 8
  ret { i64, ptr } %14
}

; Function Attrs: mustprogress uwtable
define linkonce_odr dso_local void @_ZNSt7__cxx1112basic_stringIcSt11char_traitsIcESaIcEEC2IS3_EEPKcRKS3_(ptr noundef nonnull align 8 dereferenceable(32) %0, ptr noundef %1, ptr noundef nonnull align 1 dereferenceable(1) %2) unnamed_addr #4 comdat align 2 personality ptr @__gxx_personality_v0 {
  %4 = alloca ptr, align 8
  %5 = alloca ptr, align 8
  %6 = alloca ptr, align 8
  %7 = alloca ptr, align 8
  %8 = alloca i32, align 4
  %9 = alloca ptr, align 8
  store ptr %0, ptr %4, align 8
  store ptr %1, ptr %5, align 8
  store ptr %2, ptr %6, align 8
  %10 = load ptr, ptr %4, align 8
  %11 = getelementptr inbounds %"class.std::__cxx11::basic_string", ptr %10, i32 0, i32 0
  %12 = call noundef ptr @_ZNSt7__cxx1112basic_stringIcSt11char_traitsIcESaIcEE13_M_local_dataEv(ptr noundef nonnull align 8 dereferenceable(32) %10)
  %13 = load ptr, ptr %6, align 8
  call void @_ZNSt7__cxx1112basic_stringIcSt11char_traitsIcESaIcEE12_Alloc_hiderC1EPcRKS3_(ptr noundef nonnull align 8 dereferenceable(8) %11, ptr noundef %12, ptr noundef nonnull align 1 dereferenceable(1) %13)
  %14 = load ptr, ptr %5, align 8
  %15 = icmp eq ptr %14, null
  br i1 %15, label %16, label %22

16:                                               ; preds = %3
  invoke void @_ZSt19__throw_logic_errorPKc(ptr noundef @.str.35) #12
          to label %17 unwind label %18

17:                                               ; preds = %16
  unreachable

18:                                               ; preds = %22, %16
  %19 = landingpad { ptr, i32 }
          cleanup
  %20 = extractvalue { ptr, i32 } %19, 0
  store ptr %20, ptr %7, align 8
  %21 = extractvalue { ptr, i32 } %19, 1
  store i32 %21, ptr %8, align 4
  call void @_ZNSt7__cxx1112basic_stringIcSt11char_traitsIcESaIcEE12_Alloc_hiderD2Ev(ptr noundef nonnull align 8 dereferenceable(8) %11) #3
  br label %30

22:                                               ; preds = %3
  %23 = load ptr, ptr %5, align 8
  %24 = load ptr, ptr %5, align 8
  %25 = call noundef i64 @_ZNSt11char_traitsIcE6lengthEPKc(ptr noundef %24)
  %26 = getelementptr inbounds i8, ptr %23, i64 %25
  store ptr %26, ptr %9, align 8
  %27 = load ptr, ptr %5, align 8
  %28 = load ptr, ptr %9, align 8
  invoke void @_ZNSt7__cxx1112basic_stringIcSt11char_traitsIcESaIcEE12_M_constructIPKcEEvT_S8_St20forward_iterator_tag(ptr noundef nonnull align 8 dereferenceable(32) %10, ptr noundef %27, ptr noundef %28)
          to label %29 unwind label %18

29:                                               ; preds = %22
  ret void

30:                                               ; preds = %18
  %31 = load ptr, ptr %7, align 8
  %32 = load i32, ptr %8, align 4
  %33 = insertvalue { ptr, i32 } poison, ptr %31, 0
  %34 = insertvalue { ptr, i32 } %33, i32 %32, 1
  resume { ptr, i32 } %34
}

; Function Attrs: mustprogress nounwind uwtable
define linkonce_odr dso_local void @_ZNSaImED2Ev(ptr noundef nonnull align 1 dereferenceable(1) %0) unnamed_addr #5 comdat align 2 {
  %2 = alloca ptr, align 8
  store ptr %0, ptr %2, align 8
  %3 = load ptr, ptr %2, align 8
  call void @_ZNSt15__new_allocatorImED2Ev(ptr noundef nonnull align 1 dereferenceable(1) %3) #3
  ret void
}

; Function Attrs: mustprogress nounwind uwtable
define linkonce_odr dso_local void @_ZNSaImEC2Ev(ptr noundef nonnull align 1 dereferenceable(1) %0) unnamed_addr #5 comdat align 2 {
  %2 = alloca ptr, align 8
  store ptr %0, ptr %2, align 8
  %3 = load ptr, ptr %2, align 8
  call void @_ZNSt15__new_allocatorImEC2Ev(ptr noundef nonnull align 1 dereferenceable(1) %3) #3
  ret void
}

; Function Attrs: mustprogress uwtable
define internal void @_ZN12_GLOBAL__N_112_GLOBAL__N_117WriteMessageEventER14cmConfigureLogRK10cmMakefileRKNSt7__cxx1112basic_stringIcSt11char_traitsIcESaIcEEE(ptr noundef nonnull align 8 dereferenceable(584) %0, ptr noundef nonnull align 8 dereferenceable(3520) %1, ptr noundef nonnull align 8 dereferenceable(32) %2) #4 personality ptr @__gxx_personality_v0 {
  %4 = alloca ptr, align 8
  %5 = alloca ptr, align 8
  %6 = alloca ptr, align 8
  %7 = alloca %"class.std::initializer_list", align 8
  %8 = alloca [1 x i64], align 8
  %9 = alloca %"class.std::allocator.93", align 1
  %10 = alloca ptr, align 8
  %11 = alloca i32, align 4
  %12 = alloca %"class.std::__cxx11::basic_string", align 8
  %13 = alloca %"class.std::allocator", align 1
  %14 = alloca %"class.std::basic_string_view", align 8
  %15 = alloca %"class.cm::static_string_view", align 8
  store ptr %0, ptr %4, align 8
  store ptr %1, ptr %5, align 8
  store ptr %2, ptr %6, align 8
  %16 = load atomic i8, ptr @_ZGVZN12_GLOBAL__N_112_GLOBAL__N_117WriteMessageEventER14cmConfigureLogRK10cmMakefileRKNSt7__cxx1112basic_stringIcSt11char_traitsIcESaIcEEEE24LogVersionsWithMessageV1 acquire, align 8
  %17 = icmp eq i8 %16, 0
  br i1 %17, label %18, label %32, !prof !5

18:                                               ; preds = %3
  %19 = call i32 @__cxa_guard_acquire(ptr @_ZGVZN12_GLOBAL__N_112_GLOBAL__N_117WriteMessageEventER14cmConfigureLogRK10cmMakefileRKNSt7__cxx1112basic_stringIcSt11char_traitsIcESaIcEEEE24LogVersionsWithMessageV1) #3
  %20 = icmp ne i32 %19, 0
  br i1 %20, label %21, label %32

21:                                               ; preds = %18
  %22 = getelementptr inbounds [1 x i64], ptr %8, i64 0, i64 0
  store i64 1, ptr %22, align 8
  %23 = getelementptr inbounds %"class.std::initializer_list", ptr %7, i32 0, i32 0
  %24 = getelementptr inbounds [1 x i64], ptr %8, i64 0, i64 0
  store ptr %24, ptr %23, align 8
  %25 = getelementptr inbounds %"class.std::initializer_list", ptr %7, i32 0, i32 1
  store i64 1, ptr %25, align 8
  call void @_ZNSaImEC2Ev(ptr noundef nonnull align 1 dereferenceable(1) %9) #3
  %26 = getelementptr inbounds { ptr, i64 }, ptr %7, i32 0, i32 0
  %27 = load ptr, ptr %26, align 8
  %28 = getelementptr inbounds { ptr, i64 }, ptr %7, i32 0, i32 1
  %29 = load i64, ptr %28, align 8
  invoke void @_ZNSt6vectorImSaImEEC2ESt16initializer_listImERKS0_(ptr noundef nonnull align 8 dereferenceable(24) @_ZZN12_GLOBAL__N_112_GLOBAL__N_117WriteMessageEventER14cmConfigureLogRK10cmMakefileRKNSt7__cxx1112basic_stringIcSt11char_traitsIcESaIcEEEE24LogVersionsWithMessageV1, ptr %27, i64 %29, ptr noundef nonnull align 1 dereferenceable(1) %9)
          to label %30 unwind label %53

30:                                               ; preds = %21
  call void @_ZNSaImED2Ev(ptr noundef nonnull align 1 dereferenceable(1) %9) #3
  %31 = call i32 @__cxa_atexit(ptr @_ZNSt6vectorImSaImEED2Ev, ptr @_ZZN12_GLOBAL__N_112_GLOBAL__N_117WriteMessageEventER14cmConfigureLogRK10cmMakefileRKNSt7__cxx1112basic_stringIcSt11char_traitsIcESaIcEEEE24LogVersionsWithMessageV1, ptr @__dso_handle) #3
  call void @__cxa_guard_release(ptr @_ZGVZN12_GLOBAL__N_112_GLOBAL__N_117WriteMessageEventER14cmConfigureLogRK10cmMakefileRKNSt7__cxx1112basic_stringIcSt11char_traitsIcESaIcEEEE24LogVersionsWithMessageV1) #3
  br label %32

32:                                               ; preds = %30, %18, %3
  %33 = load ptr, ptr %4, align 8
  %34 = call noundef zeroext i1 @_ZNK14cmConfigureLog22IsAnyLogVersionEnabledERKSt6vectorImSaImEE(ptr noundef nonnull align 8 dereferenceable(584) %33, ptr noundef nonnull align 8 dereferenceable(24) @_ZZN12_GLOBAL__N_112_GLOBAL__N_117WriteMessageEventER14cmConfigureLogRK10cmMakefileRKNSt7__cxx1112basic_stringIcSt11char_traitsIcESaIcEEEE24LogVersionsWithMessageV1)
  br i1 %34, label %35, label %66

35:                                               ; preds = %32
  %36 = load ptr, ptr %4, align 8
  call void @_ZNSaIcEC1Ev(ptr noundef nonnull align 1 dereferenceable(1) %13) #3
  invoke void @_ZNSt7__cxx1112basic_stringIcSt11char_traitsIcESaIcEEC2IS3_EEPKcRKS3_(ptr noundef nonnull align 8 dereferenceable(32) %12, ptr noundef @.str.21, ptr noundef nonnull align 1 dereferenceable(1) %13)
          to label %37 unwind label %57

37:                                               ; preds = %35
  %38 = load ptr, ptr %5, align 8
  invoke void @_ZN14cmConfigureLog10BeginEventERKNSt7__cxx1112basic_stringIcSt11char_traitsIcESaIcEEERK10cmMakefile(ptr noundef nonnull align 8 dereferenceable(584) %36, ptr noundef nonnull align 8 dereferenceable(32) %12, ptr noundef nonnull align 8 dereferenceable(3520) %38)
          to label %39 unwind label %61

39:                                               ; preds = %37
  call void @_ZNSt7__cxx1112basic_stringIcSt11char_traitsIcESaIcEED1Ev(ptr noundef nonnull align 8 dereferenceable(32) %12) #3
  call void @_ZNSaIcED1Ev(ptr noundef nonnull align 1 dereferenceable(1) %13) #3
  %40 = load ptr, ptr %4, align 8
  %41 = call { i64, ptr } @_ZN2cmli2_sEPKcm(ptr noundef @.str.22, i64 noundef 7)
  %42 = getelementptr inbounds %"class.cm::static_string_view", ptr %15, i32 0, i32 0
  %43 = getelementptr inbounds { i64, ptr }, ptr %42, i32 0, i32 0
  %44 = extractvalue { i64, ptr } %41, 0
  store i64 %44, ptr %43, align 8
  %45 = getelementptr inbounds { i64, ptr }, ptr %42, i32 0, i32 1
  %46 = extractvalue { i64, ptr } %41, 1
  store ptr %46, ptr %45, align 8
  call void @llvm.memcpy.p0.p0.i64(ptr align 8 %14, ptr align 8 %15, i64 16, i1 false)
  %47 = load ptr, ptr %6, align 8
  %48 = getelementptr inbounds { i64, ptr }, ptr %14, i32 0, i32 0
  %49 = load i64, ptr %48, align 8
  %50 = getelementptr inbounds { i64, ptr }, ptr %14, i32 0, i32 1
  %51 = load ptr, ptr %50, align 8
  call void @_ZN14cmConfigureLog21WriteLiteralTextBlockESt17basic_string_viewIcSt11char_traitsIcEERKNSt7__cxx1112basic_stringIcS2_SaIcEEE(ptr noundef nonnull align 8 dereferenceable(584) %40, i64 %49, ptr %51, ptr noundef nonnull align 8 dereferenceable(32) %47)
  %52 = load ptr, ptr %4, align 8
  call void @_ZN14cmConfigureLog8EndEventEv(ptr noundef nonnull align 8 dereferenceable(584) %52)
  br label %66

53:                                               ; preds = %21
  %54 = landingpad { ptr, i32 }
          cleanup
  %55 = extractvalue { ptr, i32 } %54, 0
  store ptr %55, ptr %10, align 8
  %56 = extractvalue { ptr, i32 } %54, 1
  store i32 %56, ptr %11, align 4
  call void @_ZNSaImED2Ev(ptr noundef nonnull align 1 dereferenceable(1) %9) #3
  call void @__cxa_guard_abort(ptr @_ZGVZN12_GLOBAL__N_112_GLOBAL__N_117WriteMessageEventER14cmConfigureLogRK10cmMakefileRKNSt7__cxx1112basic_stringIcSt11char_traitsIcESaIcEEEE24LogVersionsWithMessageV1) #3
  br label %67

57:                                               ; preds = %35
  %58 = landingpad { ptr, i32 }
          cleanup
  %59 = extractvalue { ptr, i32 } %58, 0
  store ptr %59, ptr %10, align 8
  %60 = extractvalue { ptr, i32 } %58, 1
  store i32 %60, ptr %11, align 4
  br label %65

61:                                               ; preds = %37
  %62 = landingpad { ptr, i32 }
          cleanup
  %63 = extractvalue { ptr, i32 } %62, 0
  store ptr %63, ptr %10, align 8
  %64 = extractvalue { ptr, i32 } %62, 1
  store i32 %64, ptr %11, align 4
  call void @_ZNSt7__cxx1112basic_stringIcSt11char_traitsIcESaIcEED1Ev(ptr noundef nonnull align 8 dereferenceable(32) %12) #3
  br label %65

65:                                               ; preds = %61, %57
  call void @_ZNSaIcED1Ev(ptr noundef nonnull align 1 dereferenceable(1) %13) #3
  br label %67

66:                                               ; preds = %39, %32
  ret void

67:                                               ; preds = %65, %53
  %68 = load ptr, ptr %10, align 8
  %69 = load i32, ptr %11, align 4
  %70 = insertvalue { ptr, i32 } poison, ptr %68, 0
  %71 = insertvalue { ptr, i32 } %70, i32 %69, 1
  resume { ptr, i32 } %71
}