; Function Attrs: mustprogress uwtable
define internal fastcc void @_ZN12_GLOBAL__N_112_GLOBAL__N_117WriteMessageEventER14cmConfigureLogRK10cmMakefileRKNSt7__cxx1112basic_stringIcSt11char_traitsIcESaIcEEE(ptr noundef nonnull align 8 dereferenceable(584) %0, ptr noundef nonnull align 8 dereferenceable(3520) %1, ptr noundef nonnull align 8 dereferenceable(32) %2) unnamed_addr #3 personality ptr @__gxx_personality_v0 {
  %4 = alloca [1 x i64], align 8
  %5 = alloca %"class.std::allocator.93", align 1
  %6 = alloca %"class.std::__cxx11::basic_string", align 8
  %7 = alloca %"class.std::allocator", align 1
  %8 = load atomic i8, ptr @_ZGVZN12_GLOBAL__N_112_GLOBAL__N_117WriteMessageEventER14cmConfigureLogRK10cmMakefileRKNSt7__cxx1112basic_stringIcSt11char_traitsIcESaIcEEEE24LogVersionsWithMessageV1 acquire, align 8
  %9 = icmp eq i8 %8, 0
  br i1 %9, label %10, label %15, !prof !11

10:                                               ; preds = %3
  %11 = tail call i32 @__cxa_guard_acquire(ptr nonnull @_ZGVZN12_GLOBAL__N_112_GLOBAL__N_117WriteMessageEventER14cmConfigureLogRK10cmMakefileRKNSt7__cxx1112basic_stringIcSt11char_traitsIcESaIcEEEE24LogVersionsWithMessageV1) #18
  %.not = icmp eq i32 %11, 0
  br i1 %.not, label %15, label %12

12:                                               ; preds = %10
  store i64 1, ptr %4, align 8
  invoke void @_ZNSt6vectorImSaImEEC2ESt16initializer_listImERKS0_(ptr noundef nonnull align 8 dereferenceable(24) @_ZZN12_GLOBAL__N_112_GLOBAL__N_117WriteMessageEventER14cmConfigureLogRK10cmMakefileRKNSt7__cxx1112basic_stringIcSt11char_traitsIcESaIcEEEE24LogVersionsWithMessageV1, ptr nonnull %4, i64 1, ptr noundef nonnull align 1 dereferenceable(1) %5)
          to label %13 unwind label %25

13:                                               ; preds = %12
  %14 = call i32 @__cxa_atexit(ptr nonnull @_ZNSt6vectorImSaImEED2Ev, ptr nonnull @_ZZN12_GLOBAL__N_112_GLOBAL__N_117WriteMessageEventER14cmConfigureLogRK10cmMakefileRKNSt7__cxx1112basic_stringIcSt11char_traitsIcESaIcEEEE24LogVersionsWithMessageV1, ptr nonnull @__dso_handle) #18
  call void @__cxa_guard_release(ptr nonnull @_ZGVZN12_GLOBAL__N_112_GLOBAL__N_117WriteMessageEventER14cmConfigureLogRK10cmMakefileRKNSt7__cxx1112basic_stringIcSt11char_traitsIcESaIcEEEE24LogVersionsWithMessageV1) #18
  br label %15

15:                                               ; preds = %13, %10, %3
  %16 = call noundef zeroext i1 @_ZNK14cmConfigureLog22IsAnyLogVersionEnabledERKSt6vectorImSaImEE(ptr noundef nonnull align 8 dereferenceable(584) %0, ptr noundef nonnull align 8 dereferenceable(24) @_ZZN12_GLOBAL__N_112_GLOBAL__N_117WriteMessageEventER14cmConfigureLogRK10cmMakefileRKNSt7__cxx1112basic_stringIcSt11char_traitsIcESaIcEEEE24LogVersionsWithMessageV1)
  br i1 %16, label %17, label %31

17:                                               ; preds = %15
  call void @_ZNSaIcEC1Ev(ptr noundef nonnull align 1 dereferenceable(1) %7) #18
  %18 = invoke noundef ptr @_ZNSt7__cxx1112basic_stringIcSt11char_traitsIcESaIcEE13_M_local_dataEv(ptr noundef nonnull align 8 dereferenceable(32) %6)
          to label %.noexc unwind label %27

.noexc:                                           ; preds = %17
  invoke void @_ZNSt7__cxx1112basic_stringIcSt11char_traitsIcESaIcEE12_Alloc_hiderC1EPcRKS3_(ptr noundef nonnull align 8 dereferenceable(32) %6, ptr noundef %18, ptr noundef nonnull align 1 dereferenceable(1) %7)
          to label %.noexc15 unwind label %27

.noexc15:                                         ; preds = %.noexc
  invoke void @_ZNSt7__cxx1112basic_stringIcSt11char_traitsIcESaIcEE12_M_constructIPKcEEvT_S8_St20forward_iterator_tag(ptr noundef nonnull align 8 dereferenceable(32) %6, ptr noundef nonnull @.str.21, ptr noundef nonnull getelementptr inbounds nuw (i8, ptr @.str.21, i64 10))
          to label %_ZNSt7__cxx1112basic_stringIcSt11char_traitsIcESaIcEEC2IS3_EEPKcRKS3_.exit unwind label %19

19:                                               ; preds = %.noexc15
  %20 = landingpad { ptr, i32 }
          cleanup
  call void @_ZNSaIcED2Ev(ptr noundef nonnull align 8 dereferenceable(32) %6) #18
  br label %.body

_ZNSt7__cxx1112basic_stringIcSt11char_traitsIcESaIcEEC2IS3_EEPKcRKS3_.exit: ; preds = %.noexc15
  invoke void @_ZN14cmConfigureLog10BeginEventERKNSt7__cxx1112basic_stringIcSt11char_traitsIcESaIcEEERK10cmMakefile(ptr noundef nonnull align 8 dereferenceable(584) %0, ptr noundef nonnull align 8 dereferenceable(32) %6, ptr noundef nonnull align 8 dereferenceable(3520) %1)
          to label %21 unwind label %29

21:                                               ; preds = %_ZNSt7__cxx1112basic_stringIcSt11char_traitsIcESaIcEEC2IS3_EEPKcRKS3_.exit
  call void @_ZNSt7__cxx1112basic_stringIcSt11char_traitsIcESaIcEED1Ev(ptr noundef nonnull align 8 dereferenceable(32) %6) #18
  call void @_ZNSaIcED1Ev(ptr noundef nonnull align 1 dereferenceable(1) %7) #18
  %22 = call { i64, ptr } @_ZNKSt7__cxx1112basic_stringIcSt11char_traitsIcESaIcEEcvSt17basic_string_viewIcS2_EEv(ptr noundef nonnull align 8 dereferenceable(32) %2) #18
  %23 = extractvalue { i64, ptr } %22, 0
  %24 = extractvalue { i64, ptr } %22, 1
  call void @_ZN14cmConfigureLog21WriteLiteralTextBlockESt17basic_string_viewIcSt11char_traitsIcEES3_(ptr noundef nonnull align 8 dereferenceable(584) %0, i64 7, ptr nonnull @.str.22, i64 %23, ptr %24)
  call void @_ZN14cmConfigureLog8EndEventEv(ptr noundef nonnull align 8 dereferenceable(584) %0)
  br label %31

25:                                               ; preds = %12
  %26 = landingpad { ptr, i32 }
          cleanup
  call void @__cxa_guard_abort(ptr nonnull @_ZGVZN12_GLOBAL__N_112_GLOBAL__N_117WriteMessageEventER14cmConfigureLogRK10cmMakefileRKNSt7__cxx1112basic_stringIcSt11char_traitsIcESaIcEEEE24LogVersionsWithMessageV1) #18
  br label %32

27:                                               ; preds = %.noexc, %17
  %28 = landingpad { ptr, i32 }
          cleanup
  br label %.body

29:                                               ; preds = %_ZNSt7__cxx1112basic_stringIcSt11char_traitsIcESaIcEEC2IS3_EEPKcRKS3_.exit
  %30 = landingpad { ptr, i32 }
          cleanup
  call void @_ZNSt7__cxx1112basic_stringIcSt11char_traitsIcESaIcEED1Ev(ptr noundef nonnull align 8 dereferenceable(32) %6) #18
  br label %.body

.body:                                            ; preds = %27, %19, %29
  %.pn = phi { ptr, i32 } [ %30, %29 ], [ %28, %27 ], [ %20, %19 ]
  call void @_ZNSaIcED1Ev(ptr noundef nonnull align 1 dereferenceable(1) %7) #18
  br label %32

31:                                               ; preds = %21, %15
  ret void

32:                                               ; preds = %.body, %25
  %.pn.pn = phi { ptr, i32 } [ %.pn, %.body ], [ %26, %25 ]
  resume { ptr, i32 } %.pn.pn
}